	.file	"cpp-1.cpp"
	.text
.Ltext0:
	.file 0 "/home/kris/github/practical-binary-analysis/chapter-1/cpp" "cpp-1.cpp"
	.section	.text._ZNSt11char_traitsIcE6lengthEPKc,"axG",@progbits,_ZNSt11char_traitsIcE6lengthEPKc,comdat
	.weak	_ZNSt11char_traitsIcE6lengthEPKc
	.type	_ZNSt11char_traitsIcE6lengthEPKc, @function
_ZNSt11char_traitsIcE6lengthEPKc:
.LFB450:
	.file 1 "/usr/include/c++/11/bits/char_traits.h"
	.loc 1 393 7
	.cfi_startproc
	endbr64
	pushq	%rbp
	.cfi_def_cfa_offset 16
	.cfi_offset 6, -16
	movq	%rsp, %rbp
	.cfi_def_cfa_register 6
	subq	$32, %rsp
	movq	%rdi, -24(%rbp)
	movq	-24(%rbp), %rax
	movq	%rax, -8(%rbp)
.LBB4:
.LBB5:
	.loc 1 290 46
	movl	$0, %eax
.LBE5:
.LBE4:
	.loc 1 396 2
	testb	%al, %al
	je	.L3
	.loc 1 397 52
	movq	-24(%rbp), %rax
	movq	%rax, %rdi
	call	_ZN9__gnu_cxx11char_traitsIcE6lengthEPKc
	.loc 1 397 56
	jmp	.L4
.L3:
	.loc 1 399 25
	movq	-24(%rbp), %rax
	movq	%rax, %rdi
	call	strlen@PLT
	.loc 1 399 29
	nop
.L4:
	.loc 1 400 7
	leave
	.cfi_def_cfa 7, 8
	ret
	.cfi_endproc
.LFE450:
	.size	_ZNSt11char_traitsIcE6lengthEPKc, .-_ZNSt11char_traitsIcE6lengthEPKc
	.local	_ZStL8__ioinit
	.comm	_ZStL8__ioinit,1,1
	.globl	added
	.bss
	.align 4
	.type	added, @object
	.size	added, 4
added:
	.zero	4
	.globl	a
	.data
	.align 4
	.type	a, @object
	.size	a, 4
a:
	.long	5
	.globl	_Z8greetingB5cxx11
	.bss
	.align 32
	.type	_Z8greetingB5cxx11, @object
	.size	_Z8greetingB5cxx11, 32
_Z8greetingB5cxx11:
	.zero	32
	.text
	.globl	_Z11hello_worldv
	.type	_Z11hello_worldv, @function
_Z11hello_worldv:
.LFB1731:
	.file 2 "cpp-1.cpp"
	.loc 2 8 20
	.cfi_startproc
	endbr64
	pushq	%rbp
	.cfi_def_cfa_offset 16
	.cfi_offset 6, -16
	movq	%rsp, %rbp
	.cfi_def_cfa_register 6
	.loc 2 9 11
	leaq	_Z8greetingB5cxx11(%rip), %rax
	movq	%rax, %rsi
	leaq	_ZSt4cout(%rip), %rax
	movq	%rax, %rdi
	call	_ZStlsIcSt11char_traitsIcESaIcEERSt13basic_ostreamIT_T0_ES7_RKNSt7__cxx1112basic_stringIS4_S5_T1_EE@PLT
	.loc 2 10 1
	nop
	popq	%rbp
	.cfi_def_cfa 7, 8
	ret
	.cfi_endproc
.LFE1731:
	.size	_Z11hello_worldv, .-_Z11hello_worldv
	.globl	_Z3addii
	.type	_Z3addii, @function
_Z3addii:
.LFB1732:
	.loc 2 12 23
	.cfi_startproc
	endbr64
	pushq	%rbp
	.cfi_def_cfa_offset 16
	.cfi_offset 6, -16
	movq	%rsp, %rbp
	.cfi_def_cfa_register 6
	movl	%edi, -4(%rbp)
	movl	%esi, -8(%rbp)
	.loc 2 13 16
	movl	-4(%rbp), %edx
	movl	-8(%rbp), %eax
	addl	%edx, %eax
	.loc 2 14 1
	popq	%rbp
	.cfi_def_cfa 7, 8
	ret
	.cfi_endproc
.LFE1732:
	.size	_Z3addii, .-_Z3addii
	.section	.rodata
	.align 8
.LC0:
	.string	"The value of a before setting to zero: %d\n"
.LC1:
	.string	"Address of a: %p\n"
	.align 8
.LC2:
	.string	"Error: Null pointer passed to set_to_zero."
.LC3:
	.string	"Value of a is now set to: %d\n"
	.text
	.globl	_Z11set_to_zeroPi
	.type	_Z11set_to_zeroPi, @function
_Z11set_to_zeroPi:
.LFB1733:
	.loc 2 17 26
	.cfi_startproc
	endbr64
	pushq	%rbp
	.cfi_def_cfa_offset 16
	.cfi_offset 6, -16
	movq	%rsp, %rbp
	.cfi_def_cfa_register 6
	subq	$16, %rsp
	movq	%rdi, -8(%rbp)
	.loc 2 18 11
	movq	-8(%rbp), %rax
	movl	(%rax), %eax
	movl	%eax, %esi
	leaq	.LC0(%rip), %rax
	movq	%rax, %rdi
	movl	$0, %eax
	call	printf@PLT
	.loc 2 19 11
	leaq	-8(%rbp), %rax
	movq	%rax, %rsi
	leaq	.LC1(%rip), %rax
	movq	%rax, %rdi
	movl	$0, %eax
	call	printf@PLT
	.loc 2 20 11
	movq	-8(%rbp), %rax
	.loc 2 20 5
	testq	%rax, %rax
	jne	.L9
	.loc 2 21 15
	leaq	.LC2(%rip), %rax
	movq	%rax, %rdi
	call	puts@PLT
	.loc 2 22 9
	jmp	.L8
.L9:
	.loc 2 24 5
	movq	-8(%rbp), %rax
	.loc 2 24 8
	movl	$0, (%rax)
	.loc 2 25 11
	movq	-8(%rbp), %rax
	movl	(%rax), %eax
	movl	%eax, %esi
	leaq	.LC3(%rip), %rax
	movq	%rax, %rdi
	movl	$0, %eax
	call	printf@PLT
.L8:
	.loc 2 26 1
	leave
	.cfi_def_cfa 7, 8
	ret
	.cfi_endproc
.LFE1733:
	.size	_Z11set_to_zeroPi, .-_Z11set_to_zeroPi
	.section	.rodata
.LC4:
	.string	"The sum of 1 and 2 is: %d\n"
	.text
	.globl	main
	.type	main, @function
main:
.LFB1734:
	.loc 2 28 12
	.cfi_startproc
	endbr64
	pushq	%rbp
	.cfi_def_cfa_offset 16
	.cfi_offset 6, -16
	movq	%rsp, %rbp
	.cfi_def_cfa_register 6
	.loc 2 29 14
	call	_Z11hello_worldv
	.loc 2 30 14
	movl	$2, %esi
	movl	$1, %edi
	call	_Z3addii
	.loc 2 30 9
	movl	%eax, added(%rip)
	.loc 2 31 9
	movl	added(%rip), %eax
	movl	%eax, %esi
	leaq	.LC4(%rip), %rax
	movq	%rax, %rdi
	movl	$0, %eax
	call	printf@PLT
	.loc 2 32 14
	leaq	a(%rip), %rax
	movq	%rax, %rdi
	call	_Z11set_to_zeroPi
	.loc 2 33 10
	movl	$0, %eax
	.loc 2 34 1
	popq	%rbp
	.cfi_def_cfa 7, 8
	ret
	.cfi_endproc
.LFE1734:
	.size	main, .-main
	.section	.text._ZN9__gnu_cxx11char_traitsIcE2eqERKcS3_,"axG",@progbits,_ZN9__gnu_cxx11char_traitsIcE2eqERKcS3_,comdat
	.weak	_ZN9__gnu_cxx11char_traitsIcE2eqERKcS3_
	.type	_ZN9__gnu_cxx11char_traitsIcE2eqERKcS3_, @function
_ZN9__gnu_cxx11char_traitsIcE2eqERKcS3_:
.LFB1736:
	.loc 1 106 7
	.cfi_startproc
	endbr64
	pushq	%rbp
	.cfi_def_cfa_offset 16
	.cfi_offset 6, -16
	movq	%rsp, %rbp
	.cfi_def_cfa_register 6
	movq	%rdi, -8(%rbp)
	movq	%rsi, -16(%rbp)
	.loc 1 107 21
	movq	-8(%rbp), %rax
	movzbl	(%rax), %edx
	movq	-16(%rbp), %rax
	movzbl	(%rax), %eax
	.loc 1 107 24
	cmpb	%al, %dl
	sete	%al
	.loc 1 107 30
	popq	%rbp
	.cfi_def_cfa 7, 8
	ret
	.cfi_endproc
.LFE1736:
	.size	_ZN9__gnu_cxx11char_traitsIcE2eqERKcS3_, .-_ZN9__gnu_cxx11char_traitsIcE2eqERKcS3_
	.section	.text._ZN9__gnu_cxx11char_traitsIcE6lengthEPKc,"axG",@progbits,_ZN9__gnu_cxx11char_traitsIcE6lengthEPKc,comdat
	.align 2
	.weak	_ZN9__gnu_cxx11char_traitsIcE6lengthEPKc
	.type	_ZN9__gnu_cxx11char_traitsIcE6lengthEPKc, @function
_ZN9__gnu_cxx11char_traitsIcE6lengthEPKc:
.LFB1735:
	.loc 1 167 5
	.cfi_startproc
	endbr64
	pushq	%rbp
	.cfi_def_cfa_offset 16
	.cfi_offset 6, -16
	movq	%rsp, %rbp
	.cfi_def_cfa_register 6
	subq	$48, %rsp
	movq	%rdi, -40(%rbp)
	.loc 1 167 5
	movq	%fs:40, %rax
	movq	%rax, -8(%rbp)
	xorl	%eax, %eax
	.loc 1 170 19
	movq	$0, -16(%rbp)
	.loc 1 171 7
	jmp	.L16
.L17:
	.loc 1 172 9
	addq	$1, -16(%rbp)
.L16:
	.loc 1 171 17
	movb	$0, -17(%rbp)
	.loc 1 171 21
	movq	-40(%rbp), %rdx
	movq	-16(%rbp), %rax
	addq	%rax, %rdx
	.loc 1 171 17
	leaq	-17(%rbp), %rax
	movq	%rax, %rsi
	movq	%rdx, %rdi
	call	_ZN9__gnu_cxx11char_traitsIcE2eqERKcS3_
	xorl	$1, %eax
	testb	%al, %al
	jne	.L17
	.loc 1 173 14
	movq	-16(%rbp), %rax
	.loc 1 174 5
	movq	-8(%rbp), %rdx
	subq	%fs:40, %rdx
	je	.L19
	call	__stack_chk_fail@PLT
.L19:
	leave
	.cfi_def_cfa 7, 8
	ret
	.cfi_endproc
.LFE1735:
	.size	_ZN9__gnu_cxx11char_traitsIcE6lengthEPKc, .-_ZN9__gnu_cxx11char_traitsIcE6lengthEPKc
	.section	.text._ZNSt7__cxx1112basic_stringIcSt11char_traitsIcESaIcEE12_Alloc_hiderD2Ev,"axG",@progbits,_ZNSt7__cxx1112basic_stringIcSt11char_traitsIcESaIcEE12_Alloc_hiderD5Ev,comdat
	.align 2
	.weak	_ZNSt7__cxx1112basic_stringIcSt11char_traitsIcESaIcEE12_Alloc_hiderD2Ev
	.type	_ZNSt7__cxx1112basic_stringIcSt11char_traitsIcESaIcEE12_Alloc_hiderD2Ev, @function
_ZNSt7__cxx1112basic_stringIcSt11char_traitsIcESaIcEE12_Alloc_hiderD2Ev:
.LFB1843:
	.file 3 "/usr/include/c++/11/bits/basic_string.h"
	.loc 3 158 14
	.cfi_startproc
	endbr64
	pushq	%rbp
	.cfi_def_cfa_offset 16
	.cfi_offset 6, -16
	movq	%rsp, %rbp
	.cfi_def_cfa_register 6
	subq	$16, %rsp
	movq	%rdi, -8(%rbp)
.LBB6:
	.loc 3 158 14
	movq	-8(%rbp), %rax
	movq	%rax, %rdi
	call	_ZNSaIcED2Ev@PLT
.LBE6:
	nop
	leave
	.cfi_def_cfa 7, 8
	ret
	.cfi_endproc
.LFE1843:
	.size	_ZNSt7__cxx1112basic_stringIcSt11char_traitsIcESaIcEE12_Alloc_hiderD2Ev, .-_ZNSt7__cxx1112basic_stringIcSt11char_traitsIcESaIcEE12_Alloc_hiderD2Ev
	.weak	_ZNSt7__cxx1112basic_stringIcSt11char_traitsIcESaIcEE12_Alloc_hiderD1Ev
	.set	_ZNSt7__cxx1112basic_stringIcSt11char_traitsIcESaIcEE12_Alloc_hiderD1Ev,_ZNSt7__cxx1112basic_stringIcSt11char_traitsIcESaIcEE12_Alloc_hiderD2Ev
	.section	.text._ZNSt7__cxx1112basic_stringIcSt11char_traitsIcESaIcEEC2IS3_EEPKcRKS3_,"axG",@progbits,_ZNSt7__cxx1112basic_stringIcSt11char_traitsIcESaIcEEC5IS3_EEPKcRKS3_,comdat
	.align 2
	.weak	_ZNSt7__cxx1112basic_stringIcSt11char_traitsIcESaIcEEC2IS3_EEPKcRKS3_
	.type	_ZNSt7__cxx1112basic_stringIcSt11char_traitsIcESaIcEEC2IS3_EEPKcRKS3_, @function
_ZNSt7__cxx1112basic_stringIcSt11char_traitsIcESaIcEEC2IS3_EEPKcRKS3_:
.LFB1996:
	.loc 3 533 7
	.cfi_startproc
	.cfi_personality 0x9b,DW.ref.__gxx_personality_v0
	.cfi_lsda 0x1b,.LLSDA1996
	endbr64
	pushq	%rbp
	.cfi_def_cfa_offset 16
	.cfi_offset 6, -16
	movq	%rsp, %rbp
	.cfi_def_cfa_register 6
	pushq	%rbx
	subq	$72, %rsp
	.cfi_offset 3, -24
	movq	%rdi, -56(%rbp)
	movq	%rsi, -64(%rbp)
	movq	%rdx, -72(%rbp)
	.loc 3 533 7
	movq	%fs:40, %rax
	movq	%rax, -24(%rbp)
	xorl	%eax, %eax
.LBB7:
	.loc 3 534 9
	movq	-56(%rbp), %rbx
	movq	-56(%rbp), %rax
	movq	%rax, %rdi
.LEHB0:
	call	_ZNSt7__cxx1112basic_stringIcSt11char_traitsIcESaIcEE13_M_local_dataEv@PLT
	movq	%rax, %rcx
	movq	-72(%rbp), %rax
	movq	%rax, %rdx
	movq	%rcx, %rsi
	movq	%rbx, %rdi
	call	_ZNSt7__cxx1112basic_stringIcSt11char_traitsIcESaIcEE12_Alloc_hiderC1EPcRKS3_@PLT
.LEHE0:
.LBB8:
	.loc 3 536 28
	cmpq	$0, -64(%rbp)
	je	.L22
	.loc 3 536 55 discriminator 1
	movq	-64(%rbp), %rax
	movq	%rax, %rdi
.LEHB1:
	call	_ZNSt11char_traitsIcE6lengthEPKc
	.loc 3 536 28 discriminator 1
	movq	-64(%rbp), %rdx
	addq	%rdx, %rax
	jmp	.L23
.L22:
	.loc 3 536 28 is_stmt 0 discriminator 2
	movl	$1, %eax
.L23:
	.loc 3 536 16 is_stmt 1 discriminator 5
	movq	%rax, -32(%rbp)
	.loc 3 539 14 discriminator 5
	movq	-32(%rbp), %rdx
	movq	-64(%rbp), %rcx
	movq	-56(%rbp), %rax
	movq	%rcx, %rsi
	movq	%rax, %rdi
	call	_ZNSt7__cxx1112basic_stringIcSt11char_traitsIcESaIcEE12_M_constructIPKcEEvT_S8_St20forward_iterator_tag
.LEHE1:
.LBE8:
.LBE7:
	.loc 3 540 7
	jmp	.L27
.L26:
	endbr64
.LBB9:
	movq	%rax, %rbx
	movq	-56(%rbp), %rax
	movq	%rax, %rdi
	call	_ZNSt7__cxx1112basic_stringIcSt11char_traitsIcESaIcEE12_Alloc_hiderD1Ev
	movq	%rbx, %rax
	movq	%rax, %rdi
.LEHB2:
	call	_Unwind_Resume@PLT
.LEHE2:
.L27:
.LBE9:
	movq	-24(%rbp), %rax
	subq	%fs:40, %rax
	je	.L25
	call	__stack_chk_fail@PLT
.L25:
	movq	-8(%rbp), %rbx
	leave
	.cfi_def_cfa 7, 8
	ret
	.cfi_endproc
.LFE1996:
	.globl	__gxx_personality_v0
	.section	.gcc_except_table._ZNSt7__cxx1112basic_stringIcSt11char_traitsIcESaIcEEC2IS3_EEPKcRKS3_,"aG",@progbits,_ZNSt7__cxx1112basic_stringIcSt11char_traitsIcESaIcEEC5IS3_EEPKcRKS3_,comdat
.LLSDA1996:
	.byte	0xff
	.byte	0xff
	.byte	0x1
	.uleb128 .LLSDACSE1996-.LLSDACSB1996
.LLSDACSB1996:
	.uleb128 .LEHB0-.LFB1996
	.uleb128 .LEHE0-.LEHB0
	.uleb128 0
	.uleb128 0
	.uleb128 .LEHB1-.LFB1996
	.uleb128 .LEHE1-.LEHB1
	.uleb128 .L26-.LFB1996
	.uleb128 0
	.uleb128 .LEHB2-.LFB1996
	.uleb128 .LEHE2-.LEHB2
	.uleb128 0
	.uleb128 0
.LLSDACSE1996:
	.section	.text._ZNSt7__cxx1112basic_stringIcSt11char_traitsIcESaIcEEC2IS3_EEPKcRKS3_,"axG",@progbits,_ZNSt7__cxx1112basic_stringIcSt11char_traitsIcESaIcEEC5IS3_EEPKcRKS3_,comdat
	.size	_ZNSt7__cxx1112basic_stringIcSt11char_traitsIcESaIcEEC2IS3_EEPKcRKS3_, .-_ZNSt7__cxx1112basic_stringIcSt11char_traitsIcESaIcEEC2IS3_EEPKcRKS3_
	.weak	_ZNSt7__cxx1112basic_stringIcSt11char_traitsIcESaIcEEC1IS3_EEPKcRKS3_
	.set	_ZNSt7__cxx1112basic_stringIcSt11char_traitsIcESaIcEEC1IS3_EEPKcRKS3_,_ZNSt7__cxx1112basic_stringIcSt11char_traitsIcESaIcEEC2IS3_EEPKcRKS3_
	.section	.text._ZSt8distanceIPKcENSt15iterator_traitsIT_E15difference_typeES3_S3_,"axG",@progbits,_ZSt8distanceIPKcENSt15iterator_traitsIT_E15difference_typeES3_S3_,comdat
	.weak	_ZSt8distanceIPKcENSt15iterator_traitsIT_E15difference_typeES3_S3_
	.type	_ZSt8distanceIPKcENSt15iterator_traitsIT_E15difference_typeES3_S3_, @function
_ZSt8distanceIPKcENSt15iterator_traitsIT_E15difference_typeES3_S3_:
.LFB2077:
	.file 4 "/usr/include/c++/11/bits/stl_iterator_base_funcs.h"
	.loc 4 138 5
	.cfi_startproc
	endbr64
	pushq	%rbp
	.cfi_def_cfa_offset 16
	.cfi_offset 6, -16
	movq	%rsp, %rbp
	.cfi_def_cfa_register 6
	subq	$16, %rsp
	movq	%rdi, -8(%rbp)
	movq	%rsi, -16(%rbp)
	.loc 4 142 33
	leaq	-8(%rbp), %rax
	movq	%rax, %rdi
	call	_ZSt19__iterator_categoryIPKcENSt15iterator_traitsIT_E17iterator_categoryERKS3_
	.loc 4 141 29
	movq	-8(%rbp), %rax
	movq	-16(%rbp), %rdx
	movq	%rdx, %rsi
	movq	%rax, %rdi
	call	_ZSt10__distanceIPKcENSt15iterator_traitsIT_E15difference_typeES3_S3_St26random_access_iterator_tag
	.loc 4 143 5
	leave
	.cfi_def_cfa 7, 8
	ret
	.cfi_endproc
.LFE2077:
	.size	_ZSt8distanceIPKcENSt15iterator_traitsIT_E15difference_typeES3_S3_, .-_ZSt8distanceIPKcENSt15iterator_traitsIT_E15difference_typeES3_S3_
	.section	.rodata
	.align 8
.LC5:
	.string	"basic_string::_M_construct null not valid"
	.section	.text._ZNSt7__cxx1112basic_stringIcSt11char_traitsIcESaIcEE12_M_constructIPKcEEvT_S8_St20forward_iterator_tag,"axG",@progbits,_ZNSt7__cxx1112basic_stringIcSt11char_traitsIcESaIcEE12_M_constructIPKcEEvT_S8_St20forward_iterator_tag,comdat
	.align 2
	.weak	_ZNSt7__cxx1112basic_stringIcSt11char_traitsIcESaIcEE12_M_constructIPKcEEvT_S8_St20forward_iterator_tag
	.type	_ZNSt7__cxx1112basic_stringIcSt11char_traitsIcESaIcEE12_M_constructIPKcEEvT_S8_St20forward_iterator_tag, @function
_ZNSt7__cxx1112basic_stringIcSt11char_traitsIcESaIcEE12_M_constructIPKcEEvT_S8_St20forward_iterator_tag:
.LFB2076:
	.file 5 "/usr/include/c++/11/bits/basic_string.tcc"
	.loc 5 206 7
	.cfi_startproc
	.cfi_personality 0x9b,DW.ref.__gxx_personality_v0
	.cfi_lsda 0x1b,.LLSDA2076
	endbr64
	pushq	%rbp
	.cfi_def_cfa_offset 16
	.cfi_offset 6, -16
	movq	%rsp, %rbp
	.cfi_def_cfa_register 6
	pushq	%rbx
	subq	$56, %rsp
	.cfi_offset 3, -24
	movq	%rdi, -40(%rbp)
	movq	%rsi, -48(%rbp)
	movq	%rdx, -56(%rbp)
	.loc 5 206 7
	movq	%fs:40, %rax
	movq	%rax, -24(%rbp)
	xorl	%eax, %eax
	.loc 5 211 34
	movq	-48(%rbp), %rax
	movq	%rax, %rdi
	call	_ZN9__gnu_cxx17__is_null_pointerIKcEEbPT_
	.loc 5 211 42
	testb	%al, %al
	je	.L31
	.loc 5 211 42 is_stmt 0 discriminator 1
	movq	-48(%rbp), %rax
	cmpq	-56(%rbp), %rax
	je	.L31
	.loc 5 211 42 discriminator 3
	movl	$1, %eax
	jmp	.L32
.L31:
	.loc 5 211 42 discriminator 4
	movl	$0, %eax
.L32:
	.loc 5 211 2 is_stmt 1 discriminator 6
	testb	%al, %al
	je	.L33
	.loc 5 212 28
	leaq	.LC5(%rip), %rax
	movq	%rax, %rdi
.LEHB3:
	call	_ZSt19__throw_logic_errorPKc@PLT
.L33:
	.loc 5 215 57
	movq	-56(%rbp), %rdx
	movq	-48(%rbp), %rax
	movq	%rdx, %rsi
	movq	%rax, %rdi
	call	_ZSt8distanceIPKcENSt15iterator_traitsIT_E15difference_typeES3_S3_
	.loc 5 215 12
	movq	%rax, -32(%rbp)
	.loc 5 217 13
	movq	-32(%rbp), %rax
	.loc 5 217 2
	cmpq	$15, %rax
	jbe	.L34
	.loc 5 219 13
	leaq	-32(%rbp), %rcx
	movq	-40(%rbp), %rax
	movl	$0, %edx
	movq	%rcx, %rsi
	movq	%rax, %rdi
	call	_ZNSt7__cxx1112basic_stringIcSt11char_traitsIcESaIcEE9_M_createERmm@PLT
	movq	%rax, %rdx
	movq	-40(%rbp), %rax
	movq	%rdx, %rsi
	movq	%rax, %rdi
	call	_ZNSt7__cxx1112basic_stringIcSt11char_traitsIcESaIcEE7_M_dataEPc@PLT
	.loc 5 220 17
	movq	-32(%rbp), %rdx
	movq	-40(%rbp), %rax
	movq	%rdx, %rsi
	movq	%rax, %rdi
	call	_ZNSt7__cxx1112basic_stringIcSt11char_traitsIcESaIcEE11_M_capacityEm@PLT
.LEHE3:
.L34:
	.loc 5 225 25
	movq	-40(%rbp), %rax
	movq	%rax, %rdi
.LEHB4:
	call	_ZNKSt7__cxx1112basic_stringIcSt11char_traitsIcESaIcEE7_M_dataEv@PLT
.LEHE4:
	movq	%rax, %rcx
	movq	-56(%rbp), %rdx
	movq	-48(%rbp), %rax
	movq	%rax, %rsi
	movq	%rcx, %rdi
	call	_ZNSt7__cxx1112basic_stringIcSt11char_traitsIcESaIcEE13_S_copy_charsEPcPKcS7_@PLT
	.loc 5 232 15
	movq	-32(%rbp), %rdx
	movq	-40(%rbp), %rax
	movq	%rdx, %rsi
	movq	%rax, %rdi
.LEHB5:
	call	_ZNSt7__cxx1112basic_stringIcSt11char_traitsIcESaIcEE13_M_set_lengthEm@PLT
.LEHE5:
	.loc 5 233 7
	nop
	movq	-24(%rbp), %rax
	subq	%fs:40, %rax
	je	.L37
	jmp	.L40
.L38:
	endbr64
	.loc 5 226 2
	movq	%rax, %rdi
	call	__cxa_begin_catch@PLT
	.loc 5 228 16
	movq	-40(%rbp), %rax
	movq	%rax, %rdi
.LEHB6:
	call	_ZNSt7__cxx1112basic_stringIcSt11char_traitsIcESaIcEE10_M_disposeEv@PLT
	.loc 5 229 6
	call	__cxa_rethrow@PLT
.LEHE6:
.L39:
	endbr64
	.loc 5 226 2
	movq	%rax, %rbx
	call	__cxa_end_catch@PLT
	movq	%rbx, %rax
	movq	%rax, %rdi
.LEHB7:
	call	_Unwind_Resume@PLT
.LEHE7:
.L40:
	.loc 5 233 7
	call	__stack_chk_fail@PLT
.L37:
	movq	-8(%rbp), %rbx
	leave
	.cfi_def_cfa 7, 8
	ret
	.cfi_endproc
.LFE2076:
	.section	.gcc_except_table._ZNSt7__cxx1112basic_stringIcSt11char_traitsIcESaIcEE12_M_constructIPKcEEvT_S8_St20forward_iterator_tag,"aG",@progbits,_ZNSt7__cxx1112basic_stringIcSt11char_traitsIcESaIcEE12_M_constructIPKcEEvT_S8_St20forward_iterator_tag,comdat
	.align 4
.LLSDA2076:
	.byte	0xff
	.byte	0x9b
	.uleb128 .LLSDATT2076-.LLSDATTD2076
.LLSDATTD2076:
	.byte	0x1
	.uleb128 .LLSDACSE2076-.LLSDACSB2076
.LLSDACSB2076:
	.uleb128 .LEHB3-.LFB2076
	.uleb128 .LEHE3-.LEHB3
	.uleb128 0
	.uleb128 0
	.uleb128 .LEHB4-.LFB2076
	.uleb128 .LEHE4-.LEHB4
	.uleb128 .L38-.LFB2076
	.uleb128 0x1
	.uleb128 .LEHB5-.LFB2076
	.uleb128 .LEHE5-.LEHB5
	.uleb128 0
	.uleb128 0
	.uleb128 .LEHB6-.LFB2076
	.uleb128 .LEHE6-.LEHB6
	.uleb128 .L39-.LFB2076
	.uleb128 0
	.uleb128 .LEHB7-.LFB2076
	.uleb128 .LEHE7-.LEHB7
	.uleb128 0
	.uleb128 0
.LLSDACSE2076:
	.byte	0x1
	.byte	0
	.align 4
	.long	0

.LLSDATT2076:
	.section	.text._ZNSt7__cxx1112basic_stringIcSt11char_traitsIcESaIcEE12_M_constructIPKcEEvT_S8_St20forward_iterator_tag,"axG",@progbits,_ZNSt7__cxx1112basic_stringIcSt11char_traitsIcESaIcEE12_M_constructIPKcEEvT_S8_St20forward_iterator_tag,comdat
	.size	_ZNSt7__cxx1112basic_stringIcSt11char_traitsIcESaIcEE12_M_constructIPKcEEvT_S8_St20forward_iterator_tag, .-_ZNSt7__cxx1112basic_stringIcSt11char_traitsIcESaIcEE12_M_constructIPKcEEvT_S8_St20forward_iterator_tag
	.section	.text._ZN9__gnu_cxx17__is_null_pointerIKcEEbPT_,"axG",@progbits,_ZN9__gnu_cxx17__is_null_pointerIKcEEbPT_,comdat
	.weak	_ZN9__gnu_cxx17__is_null_pointerIKcEEbPT_
	.type	_ZN9__gnu_cxx17__is_null_pointerIKcEEbPT_, @function
_ZN9__gnu_cxx17__is_null_pointerIKcEEbPT_:
.LFB2112:
	.file 6 "/usr/include/c++/11/ext/type_traits.h"
	.loc 6 152 5
	.cfi_startproc
	endbr64
	pushq	%rbp
	.cfi_def_cfa_offset 16
	.cfi_offset 6, -16
	movq	%rsp, %rbp
	.cfi_def_cfa_register 6
	movq	%rdi, -8(%rbp)
	.loc 6 153 23
	cmpq	$0, -8(%rbp)
	sete	%al
	.loc 6 153 26
	popq	%rbp
	.cfi_def_cfa 7, 8
	ret
	.cfi_endproc
.LFE2112:
	.size	_ZN9__gnu_cxx17__is_null_pointerIKcEEbPT_, .-_ZN9__gnu_cxx17__is_null_pointerIKcEEbPT_
	.section	.text._ZSt19__iterator_categoryIPKcENSt15iterator_traitsIT_E17iterator_categoryERKS3_,"axG",@progbits,_ZSt19__iterator_categoryIPKcENSt15iterator_traitsIT_E17iterator_categoryERKS3_,comdat
	.weak	_ZSt19__iterator_categoryIPKcENSt15iterator_traitsIT_E17iterator_categoryERKS3_
	.type	_ZSt19__iterator_categoryIPKcENSt15iterator_traitsIT_E17iterator_categoryERKS3_, @function
_ZSt19__iterator_categoryIPKcENSt15iterator_traitsIT_E17iterator_categoryERKS3_:
.LFB2113:
	.file 7 "/usr/include/c++/11/bits/stl_iterator_base_types.h"
	.loc 7 238 5
	.cfi_startproc
	endbr64
	pushq	%rbp
	.cfi_def_cfa_offset 16
	.cfi_offset 6, -16
	movq	%rsp, %rbp
	.cfi_def_cfa_register 6
	movq	%rdi, -8(%rbp)
	.loc 7 239 68
	popq	%rbp
	.cfi_def_cfa 7, 8
	ret
	.cfi_endproc
.LFE2113:
	.size	_ZSt19__iterator_categoryIPKcENSt15iterator_traitsIT_E17iterator_categoryERKS3_, .-_ZSt19__iterator_categoryIPKcENSt15iterator_traitsIT_E17iterator_categoryERKS3_
	.section	.text._ZSt10__distanceIPKcENSt15iterator_traitsIT_E15difference_typeES3_S3_St26random_access_iterator_tag,"axG",@progbits,_ZSt10__distanceIPKcENSt15iterator_traitsIT_E15difference_typeES3_S3_St26random_access_iterator_tag,comdat
	.weak	_ZSt10__distanceIPKcENSt15iterator_traitsIT_E15difference_typeES3_S3_St26random_access_iterator_tag
	.type	_ZSt10__distanceIPKcENSt15iterator_traitsIT_E15difference_typeES3_S3_St26random_access_iterator_tag, @function
_ZSt10__distanceIPKcENSt15iterator_traitsIT_E15difference_typeES3_S3_St26random_access_iterator_tag:
.LFB2114:
	.loc 4 98 5
	.cfi_startproc
	endbr64
	pushq	%rbp
	.cfi_def_cfa_offset 16
	.cfi_offset 6, -16
	movq	%rsp, %rbp
	.cfi_def_cfa_register 6
	movq	%rdi, -8(%rbp)
	movq	%rsi, -16(%rbp)
	.loc 4 104 23
	movq	-16(%rbp), %rax
	subq	-8(%rbp), %rax
	.loc 4 105 5
	popq	%rbp
	.cfi_def_cfa 7, 8
	ret
	.cfi_endproc
.LFE2114:
	.size	_ZSt10__distanceIPKcENSt15iterator_traitsIT_E15difference_typeES3_S3_St26random_access_iterator_tag, .-_ZSt10__distanceIPKcENSt15iterator_traitsIT_E15difference_typeES3_S3_St26random_access_iterator_tag
	.section	.rodata
.LC6:
	.string	"Hello, World!\n"
	.text
	.type	_Z41__static_initialization_and_destruction_0ii, @function
_Z41__static_initialization_and_destruction_0ii:
.LFB2233:
	.loc 2 34 1
	.cfi_startproc
	.cfi_personality 0x9b,DW.ref.__gxx_personality_v0
	.cfi_lsda 0x1b,.LLSDA2233
	endbr64
	pushq	%rbp
	.cfi_def_cfa_offset 16
	.cfi_offset 6, -16
	movq	%rsp, %rbp
	.cfi_def_cfa_register 6
	pushq	%rbx
	subq	$40, %rsp
	.cfi_offset 3, -24
	movl	%edi, -36(%rbp)
	movl	%esi, -40(%rbp)
	.loc 2 34 1
	movq	%fs:40, %rax
	movq	%rax, -24(%rbp)
	xorl	%eax, %eax
	cmpl	$1, -36(%rbp)
	jne	.L47
	.loc 2 34 1 is_stmt 0 discriminator 1
	cmpl	$65535, -40(%rbp)
	jne	.L47
	.file 8 "/usr/include/c++/11/iostream"
	.loc 8 74 25 is_stmt 1
	leaq	_ZStL8__ioinit(%rip), %rax
	movq	%rax, %rdi
.LEHB8:
	call	_ZNSt8ios_base4InitC1Ev@PLT
.LEHE8:
	leaq	__dso_handle(%rip), %rax
	movq	%rax, %rdx
	leaq	_ZStL8__ioinit(%rip), %rax
	movq	%rax, %rsi
	movq	_ZNSt8ios_base4InitD1Ev@GOTPCREL(%rip), %rax
	movq	%rax, %rdi
	call	__cxa_atexit@PLT
	.loc 2 6 8
	leaq	-25(%rbp), %rax
	movq	%rax, %rdi
	call	_ZNSaIcEC1Ev@PLT
	leaq	-25(%rbp), %rax
	movq	%rax, %rdx
	leaq	.LC6(%rip), %rax
	movq	%rax, %rsi
	leaq	_Z8greetingB5cxx11(%rip), %rax
	movq	%rax, %rdi
.LEHB9:
	call	_ZNSt7__cxx1112basic_stringIcSt11char_traitsIcESaIcEEC1IS3_EEPKcRKS3_
.LEHE9:
	.loc 2 6 8 is_stmt 0 discriminator 2
	leaq	-25(%rbp), %rax
	movq	%rax, %rdi
	call	_ZNSaIcED1Ev@PLT
	leaq	__dso_handle(%rip), %rax
	movq	%rax, %rdx
	leaq	_Z8greetingB5cxx11(%rip), %rax
	movq	%rax, %rsi
	movq	_ZNSt7__cxx1112basic_stringIcSt11char_traitsIcESaIcEED1Ev@GOTPCREL(%rip), %rax
	movq	%rax, %rdi
	call	__cxa_atexit@PLT
	.loc 2 34 1 is_stmt 1 discriminator 2
	jmp	.L47
.L51:
	endbr64
	.loc 2 6 8
	movq	%rax, %rbx
	leaq	-25(%rbp), %rax
	movq	%rax, %rdi
	call	_ZNSaIcED1Ev@PLT
	movq	%rbx, %rax
	movq	%rax, %rdi
.LEHB10:
	call	_Unwind_Resume@PLT
.LEHE10:
.L47:
	.loc 2 34 1
	movq	-24(%rbp), %rax
	subq	%fs:40, %rax
	je	.L50
	call	__stack_chk_fail@PLT
.L50:
	movq	-8(%rbp), %rbx
	leave
	.cfi_def_cfa 7, 8
	ret
	.cfi_endproc
.LFE2233:
	.section	.gcc_except_table,"a",@progbits
.LLSDA2233:
	.byte	0xff
	.byte	0xff
	.byte	0x1
	.uleb128 .LLSDACSE2233-.LLSDACSB2233
.LLSDACSB2233:
	.uleb128 .LEHB8-.LFB2233
	.uleb128 .LEHE8-.LEHB8
	.uleb128 0
	.uleb128 0
	.uleb128 .LEHB9-.LFB2233
	.uleb128 .LEHE9-.LEHB9
	.uleb128 .L51-.LFB2233
	.uleb128 0
	.uleb128 .LEHB10-.LFB2233
	.uleb128 .LEHE10-.LEHB10
	.uleb128 0
	.uleb128 0
.LLSDACSE2233:
	.text
	.size	_Z41__static_initialization_and_destruction_0ii, .-_Z41__static_initialization_and_destruction_0ii
	.type	_GLOBAL__sub_I_added, @function
_GLOBAL__sub_I_added:
.LFB2234:
	.loc 2 34 1
	.cfi_startproc
	endbr64
	pushq	%rbp
	.cfi_def_cfa_offset 16
	.cfi_offset 6, -16
	movq	%rsp, %rbp
	.cfi_def_cfa_register 6
	.loc 2 34 1
	movl	$65535, %esi
	movl	$1, %edi
	call	_Z41__static_initialization_and_destruction_0ii
	popq	%rbp
	.cfi_def_cfa 7, 8
	ret
	.cfi_endproc
.LFE2234:
	.size	_GLOBAL__sub_I_added, .-_GLOBAL__sub_I_added
	.section	.init_array,"aw"
	.align 8
	.quad	_GLOBAL__sub_I_added
	.text
.Letext0:
	.file 9 "<built-in>"
	.file 10 "/usr/lib/gcc/x86_64-linux-gnu/11/include/stddef.h"
	.file 11 "/usr/include/x86_64-linux-gnu/bits/types/wint_t.h"
	.file 12 "/usr/include/x86_64-linux-gnu/bits/types/__mbstate_t.h"
	.file 13 "/usr/include/x86_64-linux-gnu/bits/types/mbstate_t.h"
	.file 14 "/usr/include/x86_64-linux-gnu/bits/types/__FILE.h"
	.file 15 "/usr/include/x86_64-linux-gnu/bits/types/struct_FILE.h"
	.file 16 "/usr/include/x86_64-linux-gnu/bits/types/FILE.h"
	.file 17 "/usr/include/c++/11/cwchar"
	.file 18 "/usr/include/x86_64-linux-gnu/c++/11/bits/c++config.h"
	.file 19 "/usr/include/c++/11/type_traits"
	.file 20 "/usr/include/c++/11/bits/exception_ptr.h"
	.file 21 "/usr/include/c++/11/debug/debug.h"
	.file 22 "/usr/include/c++/11/cstdint"
	.file 23 "/usr/include/c++/11/clocale"
	.file 24 "/usr/include/c++/11/bits/allocator.h"
	.file 25 "/usr/include/c++/11/string_view"
	.file 26 "/usr/include/c++/11/cstdlib"
	.file 27 "/usr/include/c++/11/cstdio"
	.file 28 "/usr/include/c++/11/bits/alloc_traits.h"
	.file 29 "/usr/include/c++/11/initializer_list"
	.file 30 "/usr/include/c++/11/bits/stringfwd.h"
	.file 31 "/usr/include/c++/11/bits/ios_base.h"
	.file 32 "/usr/include/c++/11/cwctype"
	.file 33 "/usr/include/c++/11/iosfwd"
	.file 34 "/usr/include/c++/11/bits/functexcept.h"
	.file 35 "/usr/include/wchar.h"
	.file 36 "/usr/include/x86_64-linux-gnu/bits/types/struct_tm.h"
	.file 37 "/usr/include/c++/11/bits/predefined_ops.h"
	.file 38 "/usr/include/c++/11/ext/new_allocator.h"
	.file 39 "/usr/include/c++/11/ext/alloc_traits.h"
	.file 40 "/usr/include/c++/11/bits/stl_iterator.h"
	.file 41 "/usr/include/x86_64-linux-gnu/bits/types.h"
	.file 42 "/usr/include/x86_64-linux-gnu/bits/stdint-intn.h"
	.file 43 "/usr/include/x86_64-linux-gnu/bits/stdint-uintn.h"
	.file 44 "/usr/include/stdint.h"
	.file 45 "/usr/include/locale.h"
	.file 46 "/usr/include/stdlib.h"
	.file 47 "/usr/include/x86_64-linux-gnu/bits/types/__fpos_t.h"
	.file 48 "/usr/include/stdio.h"
	.file 49 "/usr/include/x86_64-linux-gnu/bits/wctype-wchar.h"
	.file 50 "/usr/include/wctype.h"
	.file 51 "/usr/include/c++/11/system_error"
	.section	.data.rel.local.DW.ref.__gxx_personality_v0,"awG",@progbits,DW.ref.__gxx_personality_v0,comdat
	.align 8
	.type	DW.ref.__gxx_personality_v0, @object
	.size	DW.ref.__gxx_personality_v0, 8
DW.ref.__gxx_personality_v0:
	.quad	__gxx_personality_v0
	.hidden	__dso_handle
	.ident	"GCC: (Ubuntu 11.4.0-1ubuntu1~22.04) 11.4.0"
	.section	.note.GNU-stack,"",@progbits
	.section	.note.gnu.property,"a"
	.align 8
	.long	1f - 0f
	.long	4f - 1f
	.long	5
0:
	.string	"GNU"
1:
	.align 8
	.long	0xc0000002
	.long	3f - 2f
2:
	.long	0x3
3:
	.align 8
4:
